(i_mp_bdc39c5fcdb99014c149f155c8f72731
System
p0
(dp1
S'exe'
p2
(dp3
S'teacher'
p4
(dp5
S'ready'
p6
(dp7
S'teacher'
p8
S'init'
p9
sS'student'
p10
S'init'
p11
ssS'submitpaper'
p12
(dp13
S'teacher'
p14
S'ready'
p15
sS'student'
p16
S'ready'
p17
ssS'submitgrade'
p18
(dp19
S'teacher'
p20
S'grading'
p21
sS'student'
p22
S'waiting'
p23
sssS'student'
p24
(dp25
S'submitanswer'
p26
(dp27
S'teacher'
p28
S'waiting'
p29
sS'student'
p30
S'writing'
p31
ssssS'users'
p32
(i_mp_bdc39c5fcdb99014c149f155c8f72731
Users
p33
(dp34
g32
(lp35
S'student'
p36
aS'teacher'
p37
asbsS'pagelets'
p38
(i_mp_bdc39c5fcdb99014c149f155c8f72731
Pagelets
p39
(dp40
g38
(dp41
S'exam'
p42
(i_mp_bdc39c5fcdb99014c149f155c8f72731
Pagelet
p43
(dp44
S'fields'
p45
(i_mp_bdc39c5fcdb99014c149f155c8f72731
Fields
p46
(dp47
g45
(dp48
S'q'
p49
(i_mp_bdc39c5fcdb99014c149f155c8f72731
Field
p50
(dp51
S'value'
p52
NsS'label'
p53
g49
sbsS'a'
p54
(i_mp_bdc39c5fcdb99014c149f155c8f72731
Field
p55
(dp56
g52
Nsg53
g54
sbsS'g'
p57
(i_mp_bdc39c5fcdb99014c149f155c8f72731
Field
p58
(dp59
g52
Nsg53
g57
sbssbsg53
g42
sbssbsS'transitions'
p60
(i_mp_bdc39c5fcdb99014c149f155c8f72731
Transitions
p61
(dp62
g60
(dp63
g6
(lp64
(dp65
g8
g9
sg10
g11
sa(dp66
S'teacher'
p67
S'ready'
p68
sS'student'
p69
S'ready'
p70
sa(dp71
S'teacher'
p72
(dp73
S'exam'
p74
(dp75
S'q'
p76
S'rw'
p77
sssasg26
(lp78
(dp79
g28
g29
sg30
g31
sa(dp80
S'teacher'
p81
S'grading'
p82
sS'student'
p83
S'waiting'
p84
sa(dp85
S'teacher'
p86
(dp87
S'exam'
p88
(dp89
S'a'
p90
S'r-'
p91
sS'g'
p92
S'rw'
p93
sssS'student'
p94
(dp95
S'exam'
p96
(dp97
S'a'
p98
S'r-'
p99
sssasg12
(lp100
(dp101
g14
g15
sg16
g17
sa(dp102
S'teacher'
p103
S'waiting'
p104
sS'student'
p105
S'writing'
p106
sa(dp107
S'teacher'
p108
(dp109
S'exam'
p110
(dp111
S'q'
p112
S'r-'
p113
sssS'student'
p114
(dp115
S'exam'
p116
(dp117
S'q'
p118
S'r-'
p119
sS'a'
p120
S'rw'
p121
sssasg18
(lp122
(dp123
g20
g21
sg22
g23
sa(dp124
S'teacher'
p125
S'done'
p126
sS'student'
p127
S'done'
p128
sa(dp129
S'teacher'
p130
(dp131
S'exam'
p132
(dp133
S'g'
p134
S'r-'
p135
sssS'student'
p136
(dp137
S'exam'
p138
(dp139
S'g'
p140
S'r-'
p141
sssassbsS'currentState'
p142
NsS'view'
p143
(dp144
g37
(dp145
sg36
(dp146
ssb.